; Function Attrs: mustprogress uwtable
define dso_local void @_ZN5vcpkg25BufferedDiagnosticContext6reportERKNS_14DiagnosticLineE(ptr noundef nonnull align 8 dereferenceable(40) %0, ptr noundef nonnull align 8 dereferenceable(88) %1) unnamed_addr #0 align 2 {
  %3 = getelementptr inbounds nuw i8, ptr %0, i64 24
  %4 = load ptr, ptr %3, align 8, !tbaa !61
  %5 = getelementptr inbounds nuw i8, ptr %0, i64 32
  %6 = load ptr, ptr %5, align 8, !tbaa !64
  %.not.i = icmp eq ptr %4, %6
  br i1 %.not.i, label %10, label %7

7:                                                ; preds = %2
  tail call void @_ZN5vcpkg14DiagnosticLineC2ERKS0_(ptr noundef nonnull align 8 dereferenceable(88) %4, ptr noundef nonnull align 8 dereferenceable(88) %1)
  %8 = load ptr, ptr %3, align 8, !tbaa !61
  %9 = getelementptr inbounds nuw i8, ptr %8, i64 88
  store ptr %9, ptr %3, align 8, !tbaa !61
  br label %_ZNSt6vectorIN5vcpkg14DiagnosticLineESaIS1_EE9push_backERKS1_.exit

10:                                               ; preds = %2
  %11 = getelementptr inbounds nuw i8, ptr %0, i64 16
  tail call void @_ZNSt6vectorIN5vcpkg14DiagnosticLineESaIS1_EE17_M_realloc_insertIJRKS1_EEEvN9__gnu_cxx17__normal_iteratorIPS1_S3_EEDpOT_(ptr noundef nonnull align 8 dereferenceable(24) %11, ptr %4, ptr noundef nonnull align 8 dereferenceable(88) %1)
  br label %_ZNSt6vectorIN5vcpkg14DiagnosticLineESaIS1_EE9push_backERKS1_.exit

_ZNSt6vectorIN5vcpkg14DiagnosticLineESaIS1_EE9push_backERKS1_.exit: ; preds = %7, %10
  ret void
}